; Function Attrs: nounwind sspstrong uwtable
define internal fastcc range(i32 -128, 256) i32 @tokadd_mbchar(ptr noundef captures(none) %0, i32 noundef range(i32 -128, 256) %1) unnamed_addr #0 {
  %3 = getelementptr inbounds nuw i8, ptr %0, i64 80
  %4 = load ptr, ptr %3, align 8, !tbaa !184
  %5 = getelementptr i8, ptr %4, i64 -1
  %6 = getelementptr inbounds nuw i8, ptr %0, i64 88
  %7 = load ptr, ptr %6, align 8, !tbaa !420
  %8 = getelementptr inbounds nuw i8, ptr %0, i64 216
  %9 = load ptr, ptr %8, align 8, !tbaa !172
  %10 = tail call i32 @rb_enc_precise_mbclen(ptr noundef %5, ptr noundef %7, ptr noundef %9) #35
  %11 = icmp sgt i32 %10, 0
  br i1 %11, label %parser_precise_mbclen.exit, label %parser_precise_mbclen.exit.thread

parser_precise_mbclen.exit.thread:                ; preds = %2
  %12 = load ptr, ptr %8, align 8, !tbaa !172
  %13 = getelementptr i8, ptr %12, i64 8
  %.val.i = load ptr, ptr %13, align 8, !tbaa !563
  tail call void (ptr, ptr, ptr, ...) @parser_compile_error(ptr noundef nonnull %0, ptr noundef null, ptr noundef nonnull @.str.798, ptr noundef %.val.i)
  br label %ruby_nonempty_memcpy.exit

parser_precise_mbclen.exit:                       ; preds = %2
  %14 = trunc i32 %1 to i8
  %15 = getelementptr inbounds nuw i8, ptr %0, i64 160
  %16 = load ptr, ptr %15, align 8, !tbaa !506
  %17 = getelementptr inbounds nuw i8, ptr %0, i64 136
  %18 = load i32, ptr %17, align 8, !tbaa !574
  %19 = add i32 %18, 1
  store i32 %19, ptr %17, align 8, !tbaa !574
  %20 = sext i32 %18 to i64
  %21 = getelementptr i8, ptr %16, i64 %20
  store i8 %14, ptr %21, align 1, !tbaa !25
  %22 = load i32, ptr %17, align 8, !tbaa !574
  %23 = getelementptr inbounds nuw i8, ptr %0, i64 140
  %24 = load i32, ptr %23, align 4, !tbaa !515
  %.not.i = icmp slt i32 %22, %24
  br i1 %.not.i, label %tokadd.exit, label %25

25:                                               ; preds = %parser_precise_mbclen.exit
  %26 = shl i32 %24, 1
  store i32 %26, ptr %23, align 4, !tbaa !515
  %27 = load ptr, ptr %15, align 8, !tbaa !506
  %28 = sext i32 %26 to i64
  %29 = tail call nonnull ptr @ruby_xrealloc2(ptr noundef %27, i64 noundef %28, i64 noundef 1) #43
  store ptr %29, ptr %15, align 8, !tbaa !506
  br label %tokadd.exit

tokadd.exit:                                      ; preds = %parser_precise_mbclen.exit, %25
  %30 = add nsw i32 %10, -1
  %31 = load ptr, ptr %3, align 8, !tbaa !184
  %32 = zext nneg i32 %30 to i64
  %33 = getelementptr i8, ptr %31, i64 %32
  store ptr %33, ptr %3, align 8, !tbaa !184
  %.not = icmp eq i32 %10, 1
  br i1 %.not, label %ruby_nonempty_memcpy.exit, label %34

34:                                               ; preds = %tokadd.exit
  %35 = load i32, ptr %17, align 8, !tbaa !574
  %36 = add i32 %35, %30
  store i32 %36, ptr %17, align 8, !tbaa !574
  %37 = load i32, ptr %23, align 4, !tbaa !515
  %.not.i16 = icmp slt i32 %36, %37
  br i1 %.not.i16, label %tokspace.exit.thread, label %.preheader.i

tokspace.exit.thread:                             ; preds = %34
  %.pre.i = load ptr, ptr %15, align 8, !tbaa !506
  br label %44

.preheader.i:                                     ; preds = %34, %.preheader.i
  %38 = phi i32 [ %39, %.preheader.i ], [ %37, %34 ]
  %39 = shl i32 %38, 1
  %40 = icmp slt i32 %39, %36
  br i1 %40, label %.preheader.i, label %tokspace.exit, !llvm.loop !632

tokspace.exit:                                    ; preds = %.preheader.i
  store i32 %39, ptr %23, align 4, !tbaa !515
  %41 = load ptr, ptr %15, align 8, !tbaa !506
  %42 = sext i32 %39 to i64
  %43 = tail call nonnull ptr @ruby_xrealloc2(ptr noundef %41, i64 noundef %42, i64 noundef 1) #43
  store ptr %43, ptr %15, align 8, !tbaa !506
  %.pre13.i = load i32, ptr %17, align 8, !tbaa !574
  %.not.i17 = icmp eq i32 %30, 0
  br i1 %.not.i17, label %ruby_nonempty_memcpy.exit, label %44

44:                                               ; preds = %tokspace.exit.thread, %tokspace.exit
  %45 = phi ptr [ %.pre.i, %tokspace.exit.thread ], [ %43, %tokspace.exit ]
  %46 = phi i32 [ %36, %tokspace.exit.thread ], [ %.pre13.i, %tokspace.exit ]
  %47 = load ptr, ptr %3, align 8, !tbaa !184
  %48 = sub nsw i64 0, %32
  %49 = getelementptr i8, ptr %47, i64 %48
  %50 = sub i32 %46, %30
  %51 = sext i32 %50 to i64
  %52 = getelementptr i8, ptr %45, i64 %51
  tail call void @llvm.memcpy.p0.p0.i64(ptr noundef nonnull align 1 %52, ptr noundef nonnull readonly align 1 %49, i64 noundef range(i64 1, 0) %32, i1 noundef false) #35
  br label %ruby_nonempty_memcpy.exit

ruby_nonempty_memcpy.exit:                        ; preds = %44, %tokspace.exit, %parser_precise_mbclen.exit.thread, %tokadd.exit
  %.0 = phi i32 [ %1, %tokadd.exit ], [ -1, %parser_precise_mbclen.exit.thread ], [ %1, %tokspace.exit ], [ %1, %44 ]
  ret i32 %.0
}